; Function Attrs: mustprogress uwtable
define hidden noundef zeroext i1 @_ZN4cvc58internal11getMethodIdENS0_12NodeTemplateILb0EEERNS0_8MethodIdE(ptr noundef readonly captures(none) %0, ptr noundef nonnull writeonly align 4 captures(none) dereferenceable(4) %1) local_unnamed_addr #4 personality ptr @__gxx_personality_v0 {
  %3 = alloca i32, align 4
  %4 = alloca %"class.cvc5::internal::NodeTemplate.67", align 8
  call void @llvm.lifetime.start.p0(i64 4, ptr nonnull %3) #16
  %5 = load ptr, ptr %0, align 8, !tbaa !3
  store ptr %5, ptr %4, align 8, !tbaa !3
  %6 = call noundef zeroext i1 @_ZN4cvc58internal16ProofRuleChecker9getUInt32ENS0_12NodeTemplateILb0EEERj(ptr noundef nonnull %4, ptr noundef nonnull align 4 dereferenceable(4) %3)
  br i1 %6, label %7, label %9

7:                                                ; preds = %2
  %8 = load i32, ptr %3, align 4, !tbaa !9
  store i32 %8, ptr %1, align 4, !tbaa !11
  br label %9

9:                                                ; preds = %2, %7
  call void @llvm.lifetime.end.p0(i64 4, ptr nonnull %3) #16
  ret i1 %6
}